Certificate:
    Data:
        Version: 3 (0x2)
        Serial Number:
            d9:c9:9c:e0:00:4d:17:a4:c3:a8:1d:9b:0a:97:a5:7c
        Signature Algorithm: ecdsa-with-SHA512
        Issuer: CN=Easy-RSA CA
        Validity
            Not Before: Nov 17 19:44:01 2020 GMT
            Not After : Nov  2 19:44:01 2023 GMT
        Subject: CN=dirk
        Subject Public Key Info:
            Public Key Algorithm: id-ecPublicKey
                Public-Key: (384 bit)
                pub:
                    04:80:72:c4:30:7f:73:65:28:2b:d8:6c:0e:c0:29:
                    2d:4a:72:ab:6a:87:e3:64:d2:6e:a8:6c:fb:67:50:
                    ed:72:5d:22:13:04:24:4f:63:f1:13:1a:83:d6:bd:
                    ce:f1:e1:2e:41:5a:05:b6:af:3a:d2:1b:76:be:16:
                    f7:1e:34:b5:78:b3:b5:1d:d1:37:d9:38:13:1b:cc:
                    8b:94:72:94:e6:89:23:68:2e:b4:57:7c:e3:e4:e7:
                    e5:43:46:90:bf:0f:13
                ASN1 OID: secp384r1
                NIST CURVE: P-384
        X509v3 extensions:
            X509v3 Basic Constraints: 
                CA:FALSE
            X509v3 Subject Key Identifier: 
                54:98:7A:BF:32:36:CF:7A:35:99:BF:DC:DD:0E:65:19:31:28:54:BF
            X509v3 Authority Key Identifier: 
                keyid:0D:FF:CB:2B:02:11:09:60:34:D8:9E:8A:18:70:0A:44:47:DE:B2:F0
                DirName:/CN=Easy-RSA CA
                serial:34:69:10:0E:C8:BF:54:07:DE:5C:A0:23:37:91:82:24:88:75:79:F3

            X509v3 Extended Key Usage: 
                TLS Web Server Authentication
            X509v3 Key Usage: 
                Digital Signature, Key Encipherment
            X509v3 Subject Alternative Name: 
                DNS:dirk
    Signature Algorithm: ecdsa-with-SHA512
         30:66:02:31:00:c1:df:bc:fe:45:61:e4:03:d4:a6:be:e5:31:
         d2:97:f9:e0:3e:ac:e7:e0:42:1b:26:80:cc:eb:9b:27:f8:ea:
         94:f0:8b:42:9c:0a:7a:65:80:2f:a6:2e:9c:d5:0f:26:0f:02:
         31:00:bb:91:2b:27:52:ae:ad:d7:da:76:4c:46:0c:76:a0:5d:
         c4:25:5b:d5:93:2d:84:eb:93:fc:4b:f3:80:47:9c:f5:c6:ae:
         40:b4:1f:15:a3:14:1f:35:49:08:3f:3e:5e:aa
-----BEGIN CERTIFICATE-----
MIICFjCCAZugAwIBAgIRANnJnOAATRekw6gdmwqXpXwwCgYIKoZIzj0EAwQwFjEU
MBIGA1UEAwwLRWFzeS1SU0EgQ0EwHhcNMjAxMTE3MTk0NDAxWhcNMjMxMTAyMTk0
NDAxWjAPMQ0wCwYDVQQDDARkaXJrMHYwEAYHKoZIzj0CAQYFK4EEACIDYgAEgHLE
MH9zZSgr2GwOwCktSnKraofjZNJuqGz7Z1Dtcl0iEwQkT2PxExqD1r3O8eEuQVoF
tq860ht2vhb3HjS1eLO1HdE32TgTG8yLlHKU5okjaC60V3zj5OflQ0aQvw8To4Gz
MIGwMAkGA1UdEwQCMAAwHQYDVR0OBBYEFFSYer8yNs96NZm/3N0OZRkxKFS/MFEG
A1UdIwRKMEiAFA3/yysCEQlgNNieihhwCkRH3rLwoRqkGDAWMRQwEgYDVQQDDAtF
YXN5LVJTQSBDQYIUNGkQDsi/VAfeXKAjN5GCJIh1efMwEwYDVR0lBAwwCgYIKwYB
BQUHAwEwCwYDVR0PBAQDAgWgMA8GA1UdEQQIMAaCBGRpcmswCgYIKoZIzj0EAwQD
aQAwZgIxAMHfvP5FYeQD1Ka+5THSl/ngPqzn4EIbJoDM65sn+OqU8ItCnAp6ZYAv
pi6c1Q8mDwIxALuRKydSrq3X2nZMRgx2oF3EJVvVky2E65P8S/OAR5z1xq5AtB8V
oxQfNUkIPz5eqg==
-----END CERTIFICATE-----
